target datalayout = "e-m:e-p270:32:32-p271:32:32-p272:64:64-i64:64-i128:128-f80:128-n8:16:32:64-S128"
target triple = "x86_64-pc-linux-gnu"

@.str = private unnamed_addr constant [44 x i8] c"../openssl/crypto/property/property_parse.c\00", align 1
@.str.2 = private unnamed_addr constant [10 x i8] c"HERE-->%s\00", align 1
@__func__.parse_name = private unnamed_addr constant [11 x i8] c"parse_name\00", align 1

; Function Attrs: nounwind uwtable
define internal ptr @skip_space(ptr noundef %0) #0 {
  %2 = alloca ptr, align 8
  store ptr %0, ptr %2, align 8, !tbaa !8
  br label %3

3:                                                ; preds = %9, %1
  %4 = load ptr, ptr %2, align 8, !tbaa !8
  %5 = load i8, ptr %4, align 1, !tbaa !16
  %6 = sext i8 %5 to i32
  %7 = call i32 @ossl_ctype_check(i32 noundef %6, i32 noundef 8)
  %8 = icmp ne i32 %7, 0
  br i1 %8, label %9, label %12

9:                                                ; preds = %3
  %10 = load ptr, ptr %2, align 8, !tbaa !8
  %11 = getelementptr inbounds nuw i8, ptr %10, i32 1
  store ptr %11, ptr %2, align 8, !tbaa !8
  br label %3, !llvm.loop !28

12:                                               ; preds = %3
  %13 = load ptr, ptr %2, align 8, !tbaa !8
  ret ptr %13
}

; Function Attrs: nounwind uwtable
define internal i32 @parse_name(ptr noundef %0, ptr noundef %1, i32 noundef %2, ptr noundef %3) #0 {
  %5 = alloca i32, align 4
  %6 = alloca ptr, align 8
  %7 = alloca ptr, align 8
  %8 = alloca i32, align 4
  %9 = alloca ptr, align 8
  %10 = alloca [100 x i8], align 16
  %11 = alloca i32, align 4
  %12 = alloca i64, align 8
  %13 = alloca ptr, align 8
  %14 = alloca i32, align 4
  %15 = alloca i32, align 4
  store ptr %0, ptr %6, align 8, !tbaa !3
  store ptr %1, ptr %7, align 8, !tbaa !29
  store i32 %2, ptr %8, align 4, !tbaa !17
  store ptr %3, ptr %9, align 8, !tbaa !31
  call void @llvm.lifetime.start.p0(i64 100, ptr %10) #7
  call void @llvm.lifetime.start.p0(i64 4, ptr %11) #7
  store i32 0, ptr %11, align 4, !tbaa !17
  call void @llvm.lifetime.start.p0(i64 8, ptr %12) #7
  store i64 0, ptr %12, align 8, !tbaa !33
  call void @llvm.lifetime.start.p0(i64 8, ptr %13) #7
  %16 = load ptr, ptr %7, align 8, !tbaa !29
  %17 = load ptr, ptr %16, align 8, !tbaa !8
  store ptr %17, ptr %13, align 8, !tbaa !8
  call void @llvm.lifetime.start.p0(i64 4, ptr %14) #7
  store i32 0, ptr %14, align 4, !tbaa !17
  br label %18

18:                                               ; preds = %72, %4
  %19 = load ptr, ptr %13, align 8, !tbaa !8
  %20 = load i8, ptr %19, align 1, !tbaa !16
  %21 = sext i8 %20 to i32
  %22 = call i32 @ossl_ctype_check(i32 noundef %21, i32 noundef 3)
  %23 = icmp ne i32 %22, 0
  br i1 %23, label %27, label %24

24:                                               ; preds = %18
  call void @ERR_new()
  call void @ERR_set_debug(ptr noundef @.str, i32 noundef 67, ptr noundef @__func__.parse_name)
  %25 = load ptr, ptr %7, align 8, !tbaa !29
  %26 = load ptr, ptr %25, align 8, !tbaa !8
  call void (i32, i32, ptr, ...) @ERR_set_error(i32 noundef 55, i32 noundef 103, ptr noundef @.str.2, ptr noundef %26)
  store i32 0, ptr %5, align 4
  store i32 1, ptr %15, align 4
  br label %99

27:                                               ; preds = %18
  br label %28

28:                                               ; preds = %54, %27
  %29 = load i64, ptr %12, align 8, !tbaa !33
  %30 = icmp ult i64 %29, 99
  br i1 %30, label %31, label %40

31:                                               ; preds = %28
  %32 = load ptr, ptr %13, align 8, !tbaa !8
  %33 = load i8, ptr %32, align 1, !tbaa !16
  %34 = sext i8 %33 to i32
  %35 = call i32 @ossl_tolower(i32 noundef %34)
  %36 = trunc i32 %35 to i8
  %37 = load i64, ptr %12, align 8, !tbaa !33
  %38 = add i64 %37, 1
  store i64 %38, ptr %12, align 8, !tbaa !33
  %39 = getelementptr inbounds nuw [100 x i8], ptr %10, i64 0, i64 %37
  store i8 %36, ptr %39, align 1, !tbaa !16
  br label %41

40:                                               ; preds = %28
  store i32 1, ptr %11, align 4, !tbaa !17
  br label %41

41:                                               ; preds = %40, %31
  br label %42

42:                                               ; preds = %41
  %43 = load ptr, ptr %13, align 8, !tbaa !8
  %44 = getelementptr inbounds nuw i8, ptr %43, i32 1
  store ptr %44, ptr %13, align 8, !tbaa !8
  %45 = load i8, ptr %44, align 1, !tbaa !16
  %46 = sext i8 %45 to i32
  %47 = icmp eq i32 %46, 95
  br i1 %47, label %54, label %48

48:                                               ; preds = %42
  %49 = load ptr, ptr %13, align 8, !tbaa !8
  %50 = load i8, ptr %49, align 1, !tbaa !16
  %51 = sext i8 %50 to i32
  %52 = call i32 @ossl_ctype_check(i32 noundef %51, i32 noundef 7)
  %53 = icmp ne i32 %52, 0
  br label %54

54:                                               ; preds = %48, %42
  %55 = phi i1 [ true, %42 ], [ %53, %48 ]
  br i1 %55, label %28, label %56, !llvm.loop !35

56:                                               ; preds = %54
  %57 = load ptr, ptr %13, align 8, !tbaa !8
  %58 = load i8, ptr %57, align 1, !tbaa !16
  %59 = sext i8 %58 to i32
  %60 = icmp ne i32 %59, 46
  br i1 %60, label %61, label %62

61:                                               ; preds = %56
  br label %75

62:                                               ; preds = %56
  store i32 1, ptr %14, align 4, !tbaa !17
  %63 = load i64, ptr %12, align 8, !tbaa !33
  %64 = icmp ult i64 %63, 99
  br i1 %64, label %65, label %71

65:                                               ; preds = %62
  %66 = load ptr, ptr %13, align 8, !tbaa !8
  %67 = load i8, ptr %66, align 1, !tbaa !16
  %68 = load i64, ptr %12, align 8, !tbaa !33
  %69 = add i64 %68, 1
  store i64 %69, ptr %12, align 8, !tbaa !33
  %70 = getelementptr inbounds nuw [100 x i8], ptr %10, i64 0, i64 %68
  store i8 %67, ptr %70, align 1, !tbaa !16
  br label %72

71:                                               ; preds = %62
  store i32 1, ptr %11, align 4, !tbaa !17
  br label %72

72:                                               ; preds = %71, %65
  %73 = load ptr, ptr %13, align 8, !tbaa !8
  %74 = getelementptr inbounds nuw i8, ptr %73, i32 1
  store ptr %74, ptr %13, align 8, !tbaa !8
  br label %18

75:                                               ; preds = %61
  %76 = load i64, ptr %12, align 8, !tbaa !33
  %77 = getelementptr inbounds nuw [100 x i8], ptr %10, i64 0, i64 %76
  store i8 0, ptr %77, align 1, !tbaa !16
  %78 = load i32, ptr %11, align 4, !tbaa !17
  %79 = icmp ne i32 %78, 0
  br i1 %79, label %80, label %83

80:                                               ; preds = %75
  call void @ERR_new()
  call void @ERR_set_debug(ptr noundef @.str, i32 noundef 88, ptr noundef @__func__.parse_name)
  %81 = load ptr, ptr %7, align 8, !tbaa !29
  %82 = load ptr, ptr %81, align 8, !tbaa !8
  call void (i32, i32, ptr, ...) @ERR_set_error(i32 noundef 55, i32 noundef 100, ptr noundef @.str.2, ptr noundef %82)
  store i32 0, ptr %5, align 4
  store i32 1, ptr %15, align 4
  br label %99

83:                                               ; preds = %75
  %84 = load ptr, ptr %13, align 8, !tbaa !8
  %85 = call ptr @skip_space(ptr noundef %84)
  %86 = load ptr, ptr %7, align 8, !tbaa !29
  store ptr %85, ptr %86, align 8, !tbaa !8
  %87 = load ptr, ptr %6, align 8, !tbaa !3
  %88 = getelementptr inbounds [100 x i8], ptr %10, i64 0, i64 0
  %89 = load i32, ptr %14, align 4, !tbaa !17
  %90 = icmp ne i32 %89, 0
  br i1 %90, label %91, label %94

91:                                               ; preds = %83
  %92 = load i32, ptr %8, align 4, !tbaa !17
  %93 = icmp ne i32 %92, 0
  br label %94

94:                                               ; preds = %91, %83
  %95 = phi i1 [ false, %83 ], [ %93, %91 ]
  %96 = zext i1 %95 to i32
  %97 = call i32 @ossl_property_name(ptr noundef %87, ptr noundef %88, i32 noundef %96)
  %98 = load ptr, ptr %9, align 8, !tbaa !31
  store i32 %97, ptr %98, align 4, !tbaa !17
  store i32 1, ptr %5, align 4
  store i32 1, ptr %15, align 4
  br label %99

99:                                               ; preds = %94, %80, %24
  call void @llvm.lifetime.end.p0(i64 4, ptr %14) #7
  call void @llvm.lifetime.end.p0(i64 8, ptr %13) #7
  call void @llvm.lifetime.end.p0(i64 8, ptr %12) #7
  call void @llvm.lifetime.end.p0(i64 4, ptr %11) #7
  call void @llvm.lifetime.end.p0(i64 100, ptr %10) #7
  %100 = load i32, ptr %5, align 4
  ret i32 %100
}