; Function Attrs: nounwind uwtable
define internal fastcc range(i32 0, 2) i32 @parse_name(ptr noundef %0, ptr noundef nonnull captures(none) %1, ptr noundef nonnull writeonly captures(none) %2) unnamed_addr #0 {
  %4 = alloca [100 x i8], align 16
  call void @llvm.lifetime.start.p0(i64 100, ptr nonnull %4) #9
  %5 = load ptr, ptr %1, align 8, !tbaa !8
  %6 = load i8, ptr %5, align 1, !tbaa !3
  %7 = sext i8 %6 to i32
  %8 = tail call i32 @ossl_ctype_check(i32 noundef %7, i32 noundef 3) #9
  %.not36 = icmp eq i32 %8, 0
  br i1 %.not36, label %._crit_edge, label %.critedge.preheader

.critedge.preheader:                              ; preds = %3, %33
  %9 = phi i32 [ 1, %33 ], [ 0, %3 ]
  %.02239 = phi ptr [ %34, %33 ], [ %5, %3 ]
  %.02338 = phi i64 [ %.3, %33 ], [ 0, %3 ]
  %.02537 = phi i32 [ %.328, %33 ], [ 0, %3 ]
  br label %.critedge

._crit_edge:                                      ; preds = %33, %3
  tail call void @ERR_new() #9
  tail call void @ERR_set_debug(ptr noundef nonnull @.str, i32 noundef 67, ptr noundef nonnull @__func__.parse_name) #9
  %10 = load ptr, ptr %1, align 8, !tbaa !8
  tail call void (i32, i32, ptr, ...) @ERR_set_error(i32 noundef 55, i32 noundef 103, ptr noundef nonnull @.str.2, ptr noundef %10) #9
  br label %47

.critedge:                                        ; preds = %.critedge.backedge, %.critedge.preheader
  %.126 = phi i32 [ %.02537, %.critedge.preheader ], [ %.227, %.critedge.backedge ]
  %.124 = phi i64 [ %.02338, %.critedge.preheader ], [ %.2, %.critedge.backedge ]
  %.1 = phi ptr [ %.02239, %.critedge.preheader ], [ %20, %.critedge.backedge ]
  %11 = icmp ult i64 %.124, 99
  br i1 %11, label %12, label %19

12:                                               ; preds = %.critedge
  %13 = load i8, ptr %.1, align 1, !tbaa !3
  %14 = sext i8 %13 to i32
  %15 = tail call i32 @ossl_tolower(i32 noundef %14) #9
  %16 = trunc i32 %15 to i8
  %17 = add nuw nsw i64 %.124, 1
  %18 = getelementptr inbounds nuw [100 x i8], ptr %4, i64 0, i64 %.124
  store i8 %16, ptr %18, align 1, !tbaa !3
  br label %19

19:                                               ; preds = %.critedge, %12
  %.227 = phi i32 [ %.126, %12 ], [ 1, %.critedge ]
  %.2 = phi i64 [ %17, %12 ], [ %.124, %.critedge ]
  %20 = getelementptr inbounds nuw i8, ptr %.1, i64 1
  %21 = load i8, ptr %20, align 1, !tbaa !3
  %22 = icmp eq i8 %21, 95
  br i1 %22, label %.critedge.backedge, label %23

23:                                               ; preds = %19
  %24 = sext i8 %21 to i32
  %25 = tail call i32 @ossl_ctype_check(i32 noundef %24, i32 noundef 7) #9
  %.not31 = icmp eq i32 %25, 0
  br i1 %.not31, label %26, label %.critedge.backedge

.critedge.backedge:                               ; preds = %23, %19
  br label %.critedge, !llvm.loop !18

26:                                               ; preds = %23
  %27 = load i8, ptr %20, align 1, !tbaa !3
  %.not32 = icmp eq i8 %27, 46
  br i1 %.not32, label %28, label %38

28:                                               ; preds = %26
  %29 = icmp ult i64 %.2, 99
  br i1 %29, label %30, label %33

30:                                               ; preds = %28
  %31 = add nuw nsw i64 %.2, 1
  %32 = getelementptr inbounds nuw [100 x i8], ptr %4, i64 0, i64 %.2
  store i8 46, ptr %32, align 1, !tbaa !3
  br label %33

33:                                               ; preds = %28, %30
  %.328 = phi i32 [ %.227, %30 ], [ 1, %28 ]
  %.3 = phi i64 [ %31, %30 ], [ %.2, %28 ]
  %34 = getelementptr inbounds nuw i8, ptr %.1, i64 2
  %35 = load i8, ptr %34, align 1, !tbaa !3
  %36 = sext i8 %35 to i32
  %37 = tail call i32 @ossl_ctype_check(i32 noundef %36, i32 noundef 3) #9
  %.not = icmp eq i32 %37, 0
  br i1 %.not, label %._crit_edge, label %.critedge.preheader

38:                                               ; preds = %26
  %39 = getelementptr inbounds nuw [100 x i8], ptr %4, i64 0, i64 %.2
  store i8 0, ptr %39, align 1, !tbaa !3
  %.not33 = icmp eq i32 %.227, 0
  br i1 %.not33, label %.preheader, label %40

40:                                               ; preds = %38
  tail call void @ERR_new() #9
  tail call void @ERR_set_debug(ptr noundef nonnull @.str, i32 noundef 88, ptr noundef nonnull @__func__.parse_name) #9
  %41 = load ptr, ptr %1, align 8, !tbaa !8
  tail call void (i32, i32, ptr, ...) @ERR_set_error(i32 noundef 55, i32 noundef 100, ptr noundef nonnull @.str.2, ptr noundef %41) #9
  br label %47

.preheader:                                       ; preds = %38, %.preheader
  %.0.i = phi ptr [ %45, %.preheader ], [ %20, %38 ]
  %42 = load i8, ptr %.0.i, align 1, !tbaa !3
  %43 = sext i8 %42 to i32
  %44 = tail call i32 @ossl_ctype_check(i32 noundef %43, i32 noundef 8) #9
  %.not.i = icmp eq i32 %44, 0
  %45 = getelementptr inbounds nuw i8, ptr %.0.i, i64 1
  br i1 %.not.i, label %skip_space.exit, label %.preheader, !llvm.loop !6

skip_space.exit:                                  ; preds = %.preheader
  store ptr %.0.i, ptr %1, align 8, !tbaa !8
  %46 = call i32 @ossl_property_name(ptr noundef %0, ptr noundef nonnull %4, i32 noundef %9) #9
  store i32 %46, ptr %2, align 4, !tbaa !19
  br label %47

47:                                               ; preds = %skip_space.exit, %40, %._crit_edge
  %.029 = phi i32 [ 0, %40 ], [ 1, %skip_space.exit ], [ 0, %._crit_edge ]
  call void @llvm.lifetime.end.p0(i64 100, ptr nonnull %4) #9
  ret i32 %.029
}